target datalayout = "e-m:e-p270:32:32-p271:32:32-p272:64:64-i64:64-i128:128-f80:128-n8:16:32:64-S128"
target triple = "x86_64-pc-linux-gnu"

@.str.1441 = private unnamed_addr constant [5 x i8] c"QSIG\00", align 1
@.str.1442 = private unnamed_addr constant [5 x i8] c"qsig\00", align 1
@proto_qsig = internal global i32 0, align 4
@.str.1443 = private unnamed_addr constant [9 x i8] c"qsig_arg\00", align 1
@qsig_arg_handle = internal global ptr null, align 8
@.str.1444 = private unnamed_addr constant [9 x i8] c"qsig_res\00", align 1
@qsig_res_handle = internal global ptr null, align 8
@.str.1445 = private unnamed_addr constant [9 x i8] c"qsig_err\00", align 1
@qsig_err_handle = internal global ptr null, align 8
@.str.1446 = private unnamed_addr constant [12 x i8] c"qsig_ie_cs4\00", align 1
@qsig_ie4_handle = internal global ptr null, align 8
@.str.1447 = private unnamed_addr constant [12 x i8] c"qsig_ie_cs5\00", align 1
@qsig_ie5_handle = internal global ptr null, align 8
@.str.1448 = private unnamed_addr constant [9 x i8] c"qsig.ext\00", align 1
@.str.1449 = private unnamed_addr constant [15 x i8] c"QSIG Extension\00", align 1
@extension_dissector_table = internal global ptr null, align 8

; Function Attrs: null_pointer_is_valid sspstrong uwtable
define hidden void @proto_register_qsig() #0 {
  %1 = alloca ptr, align 8
  call void @llvm.lifetime.start.p0(i64 8, ptr %1) #6
  %2 = call i32 @proto_register_protocol(ptr noundef @.str.1441, ptr noundef @.str.1441, ptr noundef @.str.1442)
  store i32 %2, ptr @proto_qsig, align 4
  %3 = load i32, ptr @proto_qsig, align 4
  call void @proto_register_field_array(i32 noundef %3, ptr noundef @proto_register_qsig.hf, i32 noundef 805)
  call void @proto_register_subtree_array(ptr noundef @proto_register_qsig.ett, i32 noundef 361)
  %4 = load i32, ptr @proto_qsig, align 4
  %5 = call ptr @expert_register_protocol(i32 noundef %4)
  store ptr %5, ptr %1, align 8
  %6 = load ptr, ptr %1, align 8
  call void @expert_register_field_array(ptr noundef %6, ptr noundef @proto_register_qsig.ei, i32 noundef 2)
  %7 = load i32, ptr @proto_qsig, align 4
  %8 = call ptr @register_dissector(ptr noundef @.str.1443, ptr noundef @dissect_qsig_arg, i32 noundef %7)
  store ptr %8, ptr @qsig_arg_handle, align 8
  %9 = load i32, ptr @proto_qsig, align 4
  %10 = call ptr @register_dissector(ptr noundef @.str.1444, ptr noundef @dissect_qsig_res, i32 noundef %9)
  store ptr %10, ptr @qsig_res_handle, align 8
  %11 = load i32, ptr @proto_qsig, align 4
  %12 = call ptr @register_dissector(ptr noundef @.str.1445, ptr noundef @dissect_qsig_err, i32 noundef %11)
  store ptr %12, ptr @qsig_err_handle, align 8
  %13 = load i32, ptr @proto_qsig, align 4
  %14 = call ptr @register_dissector(ptr noundef @.str.1446, ptr noundef @dissect_qsig_ie_cs4, i32 noundef %13)
  store ptr %14, ptr @qsig_ie4_handle, align 8
  %15 = load i32, ptr @proto_qsig, align 4
  %16 = call ptr @register_dissector(ptr noundef @.str.1447, ptr noundef @dissect_qsig_ie_cs5, i32 noundef %15)
  store ptr %16, ptr @qsig_ie5_handle, align 8
  %17 = load i32, ptr @proto_qsig, align 4
  %18 = call ptr @register_dissector_table(ptr noundef @.str.1448, ptr noundef @.str.1449, i32 noundef %17, i32 noundef 26, i32 noundef 0)
  store ptr %18, ptr @extension_dissector_table, align 8
  call void @llvm.lifetime.end.p0(i64 8, ptr %1) #6
  ret void
}