; Function Attrs: null_pointer_is_valid sspstrong uwtable
define hidden void @proto_register_qsig() local_unnamed_addr #0 {
  %1 = tail call i32 @proto_register_protocol(ptr noundef nonnull @.str.1441, ptr noundef nonnull @.str.1441, ptr noundef nonnull @.str.1442)
  store i32 %1, ptr @proto_qsig, align 4
  tail call void @proto_register_field_array(i32 noundef %1, ptr noundef nonnull @proto_register_qsig.hf, i32 noundef 805)
  tail call void @proto_register_subtree_array(ptr noundef nonnull @proto_register_qsig.ett, i32 noundef 361)
  %2 = load i32, ptr @proto_qsig, align 4
  %3 = tail call ptr @expert_register_protocol(i32 noundef %2)
  tail call void @expert_register_field_array(ptr noundef %3, ptr noundef nonnull @proto_register_qsig.ei, i32 noundef 2)
  %4 = load i32, ptr @proto_qsig, align 4
  %5 = tail call ptr @register_dissector(ptr noundef nonnull @.str.1443, ptr noundef nonnull @dissect_qsig_arg, i32 noundef %4)
  store ptr %5, ptr @qsig_arg_handle, align 8
  %6 = load i32, ptr @proto_qsig, align 4
  %7 = tail call ptr @register_dissector(ptr noundef nonnull @.str.1444, ptr noundef nonnull @dissect_qsig_res, i32 noundef %6)
  store ptr %7, ptr @qsig_res_handle, align 8
  %8 = load i32, ptr @proto_qsig, align 4
  %9 = tail call ptr @register_dissector(ptr noundef nonnull @.str.1445, ptr noundef nonnull @dissect_qsig_err, i32 noundef %8)
  store ptr %9, ptr @qsig_err_handle, align 8
  %10 = load i32, ptr @proto_qsig, align 4
  %11 = tail call ptr @register_dissector(ptr noundef nonnull @.str.1446, ptr noundef nonnull @dissect_qsig_ie_cs4, i32 noundef %10)
  store ptr %11, ptr @qsig_ie4_handle, align 8
  %12 = load i32, ptr @proto_qsig, align 4
  %13 = tail call ptr @register_dissector(ptr noundef nonnull @.str.1447, ptr noundef nonnull @dissect_qsig_ie_cs5, i32 noundef %12)
  store ptr %13, ptr @qsig_ie5_handle, align 8
  %14 = load i32, ptr @proto_qsig, align 4
  %15 = tail call ptr @register_dissector_table(ptr noundef nonnull @.str.1448, ptr noundef nonnull @.str.1449, i32 noundef %14, i32 noundef 26, i32 noundef 0)
  store ptr %15, ptr @extension_dissector_table, align 8
  ret void
}